target datalayout = "e-m:e-p270:32:32-p271:32:32-p272:64:64-i64:64-i128:128-f80:128-n8:16:32:64-S128"
target triple = "x86_64-pc-linux-gnu"

@.str.4 = private unnamed_addr constant [2 x i8] c"r\00", align 1
@.str.6 = private unnamed_addr constant [44 x i8] c"/sys/kernel/mm/transparent_hugepage/enabled\00", align 1
@.str.7 = private unnamed_addr constant [9 x i8] c"[always]\00", align 1

; Function Attrs: nounwind uwtable
define dso_local i32 @checkTHPEnabled(ptr noundef %0) #0 {
  %2 = alloca i32, align 4
  %3 = alloca ptr, align 8
  %4 = alloca [1024 x i8], align 16
  %5 = alloca ptr, align 8
  %6 = alloca i32, align 4
  store ptr %0, ptr %3, align 8, !tbaa !5
  call void @llvm.lifetime.start.p0(i64 1024, ptr %4) #5
  call void @llvm.lifetime.start.p0(i64 8, ptr %5) #5
  %7 = call noalias ptr @fopen64(ptr noundef @.str.6, ptr noundef @.str.4)
  store ptr %7, ptr %5, align 8, !tbaa !14
  %8 = load ptr, ptr %5, align 8, !tbaa !14
  %9 = icmp ne ptr %8, null
  br i1 %9, label %11, label %10

10:                                               ; preds = %1
  store i32 0, ptr %2, align 4
  store i32 1, ptr %6, align 4
  br label %29

11:                                               ; preds = %1
  %12 = getelementptr inbounds [1024 x i8], ptr %4, i64 0, i64 0
  %13 = load ptr, ptr %5, align 8, !tbaa !14
  %14 = call ptr @fgets(ptr noundef %12, i32 noundef 1024, ptr noundef %13)
  %15 = icmp eq ptr %14, null
  br i1 %15, label %16, label %19

16:                                               ; preds = %11
  %17 = load ptr, ptr %5, align 8, !tbaa !14
  %18 = call i32 @fclose(ptr noundef %17)
  store i32 0, ptr %2, align 4
  store i32 1, ptr %6, align 4
  br label %29

19:                                               ; preds = %11
  %20 = load ptr, ptr %5, align 8, !tbaa !14
  %21 = call i32 @fclose(ptr noundef %20)
  %22 = getelementptr inbounds [1024 x i8], ptr %4, i64 0, i64 0
  %23 = call ptr @strstr(ptr noundef %22, ptr noundef @.str.7) #6
  %24 = icmp ne ptr %23, null
  br i1 %24, label %25, label %28

25:                                               ; preds = %19
  %26 = call ptr @sdsnew(ptr noundef @.str.8)
  %27 = load ptr, ptr %3, align 8, !tbaa !5
  store ptr %26, ptr %27, align 8, !tbaa !10
  store i32 -1, ptr %2, align 4
  store i32 1, ptr %6, align 4
  br label %29

28:                                               ; preds = %19
  store i32 1, ptr %2, align 4
  store i32 1, ptr %6, align 4
  br label %29

29:                                               ; preds = %28, %25, %16, %10
  call void @llvm.lifetime.end.p0(i64 8, ptr %5) #5
  call void @llvm.lifetime.end.p0(i64 1024, ptr %4) #5
  %30 = load i32, ptr %2, align 4
  ret i32 %30
}